; Function Attrs: mustprogress uwtable
define internal void @"_ZZNSt9once_flag18_Prepare_executionC1IZSt9call_onceIZNK4date9time_zone4initEvE3$_0JEEvRS_OT_DpOT0_EUlvE_EERS7_ENUlvE_8__invokeEv"() #7 align 2 {
entry:
  %0 = tail call align 8 ptr @llvm.threadlocal.address.p0(ptr align 8 @_ZSt15__once_callable)
  %1 = load ptr, ptr %0, align 8
  %.val.i = load ptr, ptr %1, align 8
  %.val.val.i = load ptr, ptr %.val.i, align 8
  tail call void @_ZN4date9time_zone9init_implEv(ptr noundef nonnull align 8 dereferenceable(88) %.val.val.i)
  ret void
}